; Function Attrs: nounwind uwtable
define ptr @Cudd_bddCompose(ptr noundef %0, ptr noundef %1, ptr noundef %2, i32 noundef %3) local_unnamed_addr #0 {
  %5 = icmp slt i32 %3, 0
  br i1 %5, label %.loopexit, label %6

6:                                                ; preds = %4
  %7 = getelementptr inbounds nuw i8, ptr %0, i64 136
  %8 = load i32, ptr %7, align 8, !tbaa !3
  %.not = icmp slt i32 %3, %8
  br i1 %.not, label %9, label %.loopexit

9:                                                ; preds = %6
  %10 = getelementptr inbounds nuw i8, ptr %0, i64 344
  %11 = load ptr, ptr %10, align 8, !tbaa !24
  %12 = zext nneg i32 %3 to i64
  %13 = getelementptr inbounds nuw ptr, ptr %11, i64 %12
  %14 = load ptr, ptr %13, align 8, !tbaa !25
  %15 = getelementptr inbounds nuw i8, ptr %0, i64 448
  br label %16

16:                                               ; preds = %16, %9
  store i32 0, ptr %15, align 8, !tbaa !26
  %17 = tail call ptr @cuddBddComposeRecur(ptr noundef nonnull %0, ptr noundef %1, ptr noundef %2, ptr noundef %14)
  %18 = load i32, ptr %15, align 8, !tbaa !26
  %19 = icmp eq i32 %18, 1
  br i1 %19, label %16, label %.loopexit, !llvm.loop !27

.loopexit:                                        ; preds = %16, %4, %6
  %.0 = phi ptr [ null, %6 ], [ null, %4 ], [ %17, %16 ]
  ret ptr %.0
}